; ModuleID = '22/496.c'
source_filename = "22/496.c"
target datalayout = "e-m:e-p270:32:32-p271:32:32-p272:64:64-i64:64-f80:128-n8:16:32:64-S128"
target triple = "x86_64-pc-linux-gnu"

@.str = private unnamed_addr constant [3 x i8] c"%d\00", align 1
@.str.1 = private unnamed_addr constant [4 x i8] c",%d\00", align 1
@.str.2 = private unnamed_addr constant [3 x i8] c"No\00", align 1

; Function Attrs: noinline nounwind uwtable
define dso_local void @selectionsort(i32* %0, i32 %1, i32 %2) #0 {
  %4 = alloca i32*, align 8
  %5 = alloca i32, align 4
  %6 = alloca i32, align 4
  %7 = alloca i32, align 4
  %8 = alloca i32, align 4
  %9 = alloca i32, align 4
  %10 = alloca i32, align 4
  store i32* %0, i32** %4, align 8
  store i32 %1, i32* %5, align 4
  store i32 %2, i32* %6, align 4
  %11 = load i32, i32* %5, align 4
  store i32 %11, i32* %7, align 4
  br label %12

12:                                               ; preds = %62, %3
  %13 = load i32, i32* %7, align 4
  %14 = load i32, i32* %6, align 4
  %15 = icmp slt i32 %13, %14
  br i1 %15, label %16, label %65

16:                                               ; preds = %12
  %17 = load i32, i32* %7, align 4
  store i32 %17, i32* %10, align 4
  %18 = load i32, i32* %7, align 4
  %19 = add nsw i32 %18, 1
  store i32 %19, i32* %8, align 4
  br label %20

20:                                               ; preds = %39, %16
  %21 = load i32, i32* %8, align 4
  %22 = load i32, i32* %6, align 4
  %23 = icmp slt i32 %21, %22
  br i1 %23, label %24, label %42

24:                                               ; preds = %20
  %25 = load i32*, i32** %4, align 8
  %26 = load i32, i32* %10, align 4
  %27 = sext i32 %26 to i64
  %28 = getelementptr inbounds i32, i32* %25, i64 %27
  %29 = load i32, i32* %28, align 4
  %30 = load i32*, i32** %4, align 8
  %31 = load i32, i32* %8, align 4
  %32 = sext i32 %31 to i64
  %33 = getelementptr inbounds i32, i32* %30, i64 %32
  %34 = load i32, i32* %33, align 4
  %35 = icmp sgt i32 %29, %34
  br i1 %35, label %36, label %38

36:                                               ; preds = %24
  %37 = load i32, i32* %8, align 4
  store i32 %37, i32* %10, align 4
  br label %38

38:                                               ; preds = %36, %24
  br label %39

39:                                               ; preds = %38
  %40 = load i32, i32* %8, align 4
  %41 = add nsw i32 %40, 1
  store i32 %41, i32* %8, align 4
  br label %20

42:                                               ; preds = %20
  %43 = load i32*, i32** %4, align 8
  %44 = load i32, i32* %7, align 4
  %45 = sext i32 %44 to i64
  %46 = getelementptr inbounds i32, i32* %43, i64 %45
  %47 = load i32, i32* %46, align 4
  store i32 %47, i32* %9, align 4
  %48 = load i32*, i32** %4, align 8
  %49 = load i32, i32* %10, align 4
  %50 = sext i32 %49 to i64
  %51 = getelementptr inbounds i32, i32* %48, i64 %50
  %52 = load i32, i32* %51, align 4
  %53 = load i32*, i32** %4, align 8
  %54 = load i32, i32* %7, align 4
  %55 = sext i32 %54 to i64
  %56 = getelementptr inbounds i32, i32* %53, i64 %55
  store i32 %52, i32* %56, align 4
  %57 = load i32, i32* %9, align 4
  %58 = load i32*, i32** %4, align 8
  %59 = load i32, i32* %10, align 4
  %60 = sext i32 %59 to i64
  %61 = getelementptr inbounds i32, i32* %58, i64 %60
  store i32 %57, i32* %61, align 4
  br label %62

62:                                               ; preds = %42
  %63 = load i32, i32* %7, align 4
  %64 = add nsw i32 %63, 1
  store i32 %64, i32* %7, align 4
  br label %12

65:                                               ; preds = %12
  ret void
}

; Function Attrs: noinline nounwind uwtable
define dso_local void @main() #0 {
  %1 = alloca [300 x i32], align 16
  %2 = alloca i32, align 4
  %3 = alloca i32, align 4
  store i32 1, i32* %2, align 4
  %4 = getelementptr inbounds [300 x i32], [300 x i32]* %1, i64 0, i64 0
  %5 = call i32 (i8*, ...) @__isoc99_scanf(i8* getelementptr inbounds ([3 x i8], [3 x i8]* @.str, i64 0, i64 0), i32* %4)
  br label %6

6:                                                ; preds = %13, %0
  %7 = load i32, i32* %2, align 4
  %8 = add nsw i32 %7, 1
  store i32 %8, i32* %2, align 4
  %9 = sext i32 %7 to i64
  %10 = getelementptr inbounds [300 x i32], [300 x i32]* %1, i64 0, i64 %9
  %11 = call i32 (i8*, ...) @__isoc99_scanf(i8* getelementptr inbounds ([4 x i8], [4 x i8]* @.str.1, i64 0, i64 0), i32* %10)
  %12 = icmp ne i32 %11, 0
  br i1 %12, label %13, label %14

13:                                               ; preds = %6
  br label %6

14:                                               ; preds = %6
  %15 = load i32, i32* %2, align 4
  %16 = add nsw i32 %15, -1
  store i32 %16, i32* %2, align 4
  %17 = load i32, i32* %2, align 4
  %18 = sub nsw i32 %17, 1
  store i32 %18, i32* %3, align 4
  %19 = getelementptr inbounds [300 x i32], [300 x i32]* %1, i64 0, i64 0
  %20 = load i32, i32* %2, align 4
  call void @selectionsort(i32* %19, i32 0, i32 %20)
  br label %21

21:                                               ; preds = %37, %14
  %22 = load i32, i32* %2, align 4
  %23 = sub nsw i32 %22, 1
  %24 = sext i32 %23 to i64
  %25 = getelementptr inbounds [300 x i32], [300 x i32]* %1, i64 0, i64 %24
  %26 = load i32, i32* %25, align 4
  %27 = load i32, i32* %3, align 4
  %28 = sext i32 %27 to i64
  %29 = getelementptr inbounds [300 x i32], [300 x i32]* %1, i64 0, i64 %28
  %30 = load i32, i32* %29, align 4
  %31 = icmp eq i32 %26, %30
  br i1 %31, label %32, label %35

32:                                               ; preds = %21
  %33 = load i32, i32* %3, align 4
  %34 = icmp sgt i32 %33, 0
  br label %35

35:                                               ; preds = %32, %21
  %36 = phi i1 [ false, %21 ], [ %34, %32 ]
  br i1 %36, label %37, label %40

37:                                               ; preds = %35
  %38 = load i32, i32* %3, align 4
  %39 = add nsw i32 %38, -1
  store i32 %39, i32* %3, align 4
  br label %21

40:                                               ; preds = %35
  %41 = load i32, i32* %3, align 4
  %42 = icmp ne i32 %41, 0
  br i1 %42, label %43, label %49

43:                                               ; preds = %40
  %44 = load i32, i32* %3, align 4
  %45 = sext i32 %44 to i64
  %46 = getelementptr inbounds [300 x i32], [300 x i32]* %1, i64 0, i64 %45
  %47 = load i32, i32* %46, align 4
  %48 = call i32 (i8*, ...) @printf(i8* getelementptr inbounds ([3 x i8], [3 x i8]* @.str, i64 0, i64 0), i32 %47)
  br label %65

49:                                               ; preds = %40
  %50 = getelementptr inbounds [300 x i32], [300 x i32]* %1, i64 0, i64 0
  %51 = load i32, i32* %50, align 16
  %52 = load i32, i32* %2, align 4
  %53 = sub nsw i32 %52, 1
  %54 = sext i32 %53 to i64
  %55 = getelementptr inbounds [300 x i32], [300 x i32]* %1, i64 0, i64 %54
  %56 = load i32, i32* %55, align 4
  %57 = icmp slt i32 %51, %56
  br i1 %57, label %58, label %62

58:                                               ; preds = %49
  %59 = getelementptr inbounds [300 x i32], [300 x i32]* %1, i64 0, i64 0
  %60 = load i32, i32* %59, align 16
  %61 = call i32 (i8*, ...) @printf(i8* getelementptr inbounds ([3 x i8], [3 x i8]* @.str, i64 0, i64 0), i32 %60)
  br label %64

62:                                               ; preds = %49
  %63 = call i32 (i8*, ...) @printf(i8* getelementptr inbounds ([3 x i8], [3 x i8]* @.str.2, i64 0, i64 0))
  br label %64

64:                                               ; preds = %62, %58
  br label %65

65:                                               ; preds = %64, %43
  ret void
}

declare dso_local i32 @__isoc99_scanf(i8*, ...) #1

declare dso_local i32 @printf(i8*, ...) #1


!llvm.module.flags = !{!0}
!llvm.ident = !{!1}

!0 = !{i32 1, !"wchar_size", i32 4}
!1 = !{!"clang version 10.0.0-4ubuntu1 "}
